(lp0
(S'const bin = require'
p1
Ntp2
a(S''
p3
Ntp4
a(S'GS_Heartbeat'
p5
(lp6
S'Flight Control'
p7
aS'0x400'
p8
aS'0x0'
p9
aS'0x0'
p10
aS'0x0'
p11
aS'0x0'
p12
atp13
a(S'LGU_PositionChange'
p14
(lp15
S'????'
p16
aS'0x0'
p17
aS'0x0'
p18
aS'0x0'
p19
aS'0x0'
p20
aS'0x0'
p21
atp22
a(S'LGU_SpeedChange'
p23
(lp24
S'????'
p25
aS'0x0'
p26
aS'0x0'
p27
aS'0x0'
p28
aS'0x0'
p29
aS'0x0'
p30
atp31
a(S'setBrakeDevelopmentMode'
p32
Ntp33
a(S'FCUPod_Off'
p34
(lp35
S'Flight Control'
p36
aS'0x3000'
p37
aS'0x76543210'
p38
aS'0x0'
p39
aS'0x0'
p40
aS'0x0'
p41
atp42
a(S'FCUPod_Stop'
p43
(lp44
S'Flight Control'
p45
aS'0x1'
p46
aS'0x1234abcd'
p47
aS'0x0'
p48
aS'0x0'
p49
aS'0x0'
p50
atp51
a(S'FCUPod_PowerLatch'
p52
(lp53
S'Flight Control'
p54
aS'0x3030'
p55
aS'0xabcd1245'
p56
aS'data.powerNode'
p57
aS'0x0'
p58
aS'0x0'
p59
atp60
a(S'FCUBrake_DisableDevelopmentMode'
p61
(lp62
S'Flight Control'
p63
aS'0x1400'
p64
aS'0x0'
p65
aS'0x0'
p66
aS'0x0'
p67
aS'0x0'
p68
atp69
a(S'FCUBrake_EnableDevelopmentMode'
p70
(lp71
S'Flight Control'
p72
aS'0x1400'
p73
aS'0x1293847'
p74
aS'0x0'
p75
aS'0x0'
p76
aS'0x0'
p77
atp78
a(S'FCUBrake_RequestDevelopmentMode'
p79
(lp80
S'Flight Control'
p81
aS'0x100'
p82
aS'0x1'
p83
aS'0x1003'
p84
aS'0x0'
p85
aS'0x0'
p86
atp87
a(S'FCUBrake_MoveMotorRAW'
p88
(lp89
S'Flight Control'
p90
aS'0x1401'
p91
aS'data.command'
p92
aS'data.position'
p93
aS'0x0'
p94
aS'0x0'
p95
atp96
a(S'FCUBrake_MoveMotorIBeam'
p97
(lp98
S'Flight Control'
p99
aS'0x1403'
p100
aS'bin.bytesToUint32(bytes[0]'
p101
aS'bytes[1]'
p102
aS'bytes[2]'
p103
aS'bytes[3]'
p104
aS'false'
p105
atp106
a(S'FCUBrake_BeginInit'
p107
(lp108
S'Flight Control'
p109
aS'0x1408'
p110
aS'0x98765432'
p111
aS'0x0'
p112
aS'0x0'
p113
aS'0x0'
p114
atp115
a(S'FCUBrake_MLPSetZeroLeftBrake'
p116
(lp117
S'Flight Control'
p118
aS'0x1409'
p119
aS'0x55660123'
p120
aS'0x0'
p121
aS'0x0'
p122
aS'0x0'
p123
atp124
a(S'FCUBrake_MLPSetZeroRightBrake'
p125
(lp126
S'Flight Control'
p127
aS'0x1409'
p128
aS'0x55660123'
p129
aS'0x1'
p130
aS'0x0'
p131
aS'0x0'
p132
atp133
a(S'FCUBrake_MLPSetSpanLeftBrake'
p134
(lp135
S'Flight Control'
p136
aS'0x1409'
p137
aS'0x55660123'
p138
aS'0x0'
p139
aS'0x1'
p140
aS'0x0'
p141
atp142
a(S'FCUBrake_MLPSetSpanRightBrake'
p143
(lp144
S'Flight Control'
p145
aS'0x1409'
p146
aS'0x55660123'
p147
aS'0x1'
p148
aS'0x1'
p149
aS'0x0'
p150
atp151
a(S'FCUStepper_SetMaxAngularAccel'
p152
(lp153
S'Flight Control'
p154
aS'0x1404'
p155
aS'0x0'
p156
aS'data.brake'
p157
aS'data.value'
p158
aS'0x0'
p159
atp160
a(S'FCUStepper_SetPicoMetersPerRev'
p161
(lp162
S'Flight Control'
p163
aS'0x1404'
p164
aS'0x1'
p165
aS'data.brake'
p166
aS'data.value'
p167
aS'0x0'
p168
atp169
a(S'FCUStepper_SetMaxRPM'
p170
(lp171
S'Flight Control'
p172
aS'0x1404'
p173
aS'0x2'
p174
aS'data.brake'
p175
aS'data.value'
p176
aS'0x0'
p177
atp178
a(S'FCUStepper_SetMicroStepResolution'
p179
(lp180
S'Flight Control'
p181
aS'0x1404'
p182
aS'0x3'
p183
aS'data.brake'
p184
aS'data.value'
p185
aS'0x0'
p186
atp187
a(S'FCUStreamingControlStart_AccelCalData'
p188
(lp189
S'Flight Control'
p190
aS'0x100'
p191
aS'0x1'
p192
aS'0x1001'
p193
aS'0x0'
p194
aS'0x0'
p195
atp196
a(S'FCUStreamingControlStart_AccelFullData'
p197
(lp198
S'Flight Control'
p199
aS'0x100'
p200
aS'0x1'
p201
aS'0x1003'
p202
aS'0x0'
p203
aS'0x0'
p204
atp205
a(S'FCUStreamingControlStart_Lasers'
p206
(lp207
S'Flight Control'
p208
aS'0x100'
p209
aS'0x1'
p210
aS'0x1101'
p211
aS'0x0'
p212
aS'0x0'
p213
atp214
a(S'FCUStreamingControlStart_ForwardLaser'
p215
(lp216
S'Flight Control'
p217
aS'0x100'
p218
aS'0x1'
p219
aS'0x1201'
p220
aS'0x0'
p221
aS'0x0'
p222
atp223
a(S'FCUStreamingControlStop_Accel'
p224
(lp225
S'Flight Control'
p226
aS'0x100'
p227
aS'0x0'
p228
aS'0x0'
p229
aS'0x0'
p230
aS'0x0'
p231
atp232
a(S'FCUStreamingControlStart_Brakes'
p233
(lp234
S'Flight Control'
p235
aS'0x100'
p236
aS'0x1'
p237
aS'0x1402'
p238
aS'0x0'
p239
aS'0x0'
p240
atp241
a(S'FCUStreamingControlStart_MotorsRaw'
p242
(lp243
S'Flight Control'
p244
aS'0x100'
p245
aS'0x1'
p246
aS'0x1406'
p247
aS'0x0'
p248
aS'0x0'
p249
atp250
a(S'FCUAccel_FineZero'
p251
(lp252
S'Flight Control'
p253
aS'0x1005'
p254
aS'data.accel'
p255
aS'data.axis'
p256
aS'0x0'
p257
aS'0x0'
p258
atp259
a(S'FCUAccel_AutoZero'
p260
(lp261
S'Flight Control'
p262
aS'0x1004'
p263
aS'data.accel'
p264
aS'0x0'
p265
aS'0x0'
p266
aS'0x0'
p267
atp268
a(S'FCUContrast_StartStream'
p269
(lp270
S'Flight Control'
p271
aS'0x100'
p272
aS'0x1'
p273
aS'0x1301'
p274
aS'0x0'
p275
aS'0x0'
p276
atp277
a(S'FCUContrast_StopStream'
p278
(lp279
S'Flight Control'
p280
aS'0x100'
p281
aS'0x0'
p282
aS'0x0'
p283
aS'0x0'
p284
aS'0x0'
p285
atp286
a(S'PowerAStreamingOff'
p287
(lp288
S'Power Node A'
p289
aS'0x3010'
p290
aS'0x0'
p291
aS'0x0'
p292
aS'0x0'
p293
aS'0x0'
p294
atp295
a(S'PowerBStreamingOff'
p296
(lp297
S'Power Node B'
p298
aS'0x3010'
p299
aS'0x0'
p300
aS'0x0'
p301
aS'0x0'
p302
aS'0x0'
p303
atp304
a(S'PowerARequestBMS'
p305
(lp306
S'Power Node A'
p307
aS'0x3010'
p308
aS'0x1'
p309
aS'0x3401'
p310
aS'0x0'
p311
aS'0x0'
p312
atp313
a(S'PowerBRequestBMS'
p314
(lp315
S'Power Node B'
p316
aS'0x3010'
p317
aS'0x1'
p318
aS'0x3401'
p319
aS'0x0'
p320
aS'0x0'
p321
atp322
a(S'PowerARequestCooling'
p323
(lp324
S'Power Node A'
p325
aS'0x3600'
p326
aS'0x0'
p327
aS'0x0'
p328
aS'0x0'
p329
aS'0x0'
p330
atp331
a(S'PowerAStartCooling'
p332
(lp333
S'Power Node A'
p334
aS'0x3041'
p335
aS'0x1'
p336
aS'0x0'
p337
aS'0x0'
p338
aS'0x0'
p339
atp340
a(S'PowerBRequestCooling'
p341
(lp342
S'Power Node B'
p343
aS'0x3010'
p344
aS'0x1'
p345
aS'0x3601'
p346
aS'0x0'
p347
aS'0x0'
p348
atp349
a(S'PowerBStartCooling'
p350
(lp351
S'Power Node B'
p352
aS'0x3041'
p353
aS'0x1'
p354
aS'0x0'
p355
aS'0x0'
p356
aS'0x0'
p357
atp358
a(S'PowerAStartRepressurizing'
p359
(lp360
S'Power Node A'
p361
aS'0x3040'
p362
aS'0x1'
p363
aS'0x0'
p364
aS'0x0'
p365
aS'0x0'
p366
atp367
a(S'PowerBStartRepressurizing'
p368
(lp369
S'Power Node B'
p370
aS'0x3040'
p371
aS'0x1'
p372
aS'0x0'
p373
aS'0x0'
p374
aS'0x0'
p375
atp376
a(S'PowerATestSolenoidPin4'
p377
(lp378
S'Power Node A'
p379
aS'0x3602'
p380
aS'0x0'
p381
aS'0x0'
p382
aS'0x0'
p383
aS'0x0'
p384
atp385
a(S'PowerATestSolenoidPin8'
p386
(lp387
S'Power Node A'
p388
aS'0x3603'
p389
aS'0x0'
p390
aS'0x0'
p391
aS'0x0'
p392
aS'0x0'
p393
atp394
a(S'PowerATestSolenoidPin16'
p395
(lp396
S'Power Node A'
p397
aS'0x3604'
p398
aS'0x0'
p399
aS'0x0'
p400
aS'0x0'
p401
aS'0x0'
p402
atp403
a(S'PowerATestSolenoidPin22'
p404
(lp405
S'Power Node A'
p406
aS'0x3605'
p407
aS'0x0'
p408
aS'0x0'
p409
aS'0x0'
p410
aS'0x0'
p411
atp412
a(S'PowerATestSolenoidPin23'
p413
(lp414
S'Power Node A'
p415
aS'0x3606'
p416
aS'0x0'
p417
aS'0x0'
p418
aS'0x0'
p419
aS'0x0'
p420
atp421
a(S'PowerBTestSolenoidPin4'
p422
(lp423
S'Power Node B'
p424
aS'0x3602'
p425
aS'0x0'
p426
aS'0x0'
p427
aS'0x0'
p428
aS'0x0'
p429
atp430
a(S'PowerBTestSolenoidPin8'
p431
(lp432
S'Power Node B'
p433
aS'0x3603'
p434
aS'0x0'
p435
aS'0x0'
p436
aS'0x0'
p437
aS'0x0'
p438
atp439
a(S'PowerBTestSolenoidPin16'
p440
(lp441
S'Power Node B'
p442
aS'0x3604'
p443
aS'0x0'
p444
aS'0x0'
p445
aS'0x0'
p446
aS'0x0'
p447
atp448
a(S'PowerBTestSolenoidPin22'
p449
(lp450
S'Power Node B'
p451
aS'0x3605'
p452
aS'0x0'
p453
aS'0x0'
p454
aS'0x0'
p455
aS'0x0'
p456
atp457
a(S'PowerBTestSolenoidPin23'
p458
(lp459
S'Power Node B'
p460
aS'0x3606'
p461
aS'0x0'
p462
aS'0x0'
p463
aS'0x0'
p464
aS'0x0'
p465
atp466
a(S'PowerAChargeRelayOff'
p467
(lp468
S'Power Node A'
p469
aS'0x3100'
p470
aS'0x0'
p471
aS'0x0'
p472
aS'0x0'
p473
aS'0x0'
p474
atp475
a(S'PowerAChargeRelayOn'
p476
(lp477
S'Power Node A'
p478
aS'0x3100'
p479
aS'0x1'
p480
aS'0x0'
p481
aS'0x0'
p482
aS'0x0'
p483
atp484
a(S'PowerAStreamCurrentTemps'
p485
(lp486
S'Power Node A'
p487
aS'0x3010'
p488
aS'0x1'
p489
aS'0x3201'
p490
aS'0x0'
p491
aS'0x0'
p492
atp493
a(S'PowerBStreamCurrentTemps'
p494
(lp495
S'Power Node B'
p496
aS'0x3010'
p497
aS'0x1'
p498
aS'0x3201'
p499
aS'0x0'
p500
aS'0x0'
p501
atp502
a(S'PowerAStreamTempLocations'
p503
(lp504
S'Power Node A'
p505
aS'0x3010'
p506
aS'0x1'
p507
aS'0x3203'
p508
aS'0x0'
p509
aS'0x0'
p510
atp511
a(S'PowerBStreamTempLocations'
p512
(lp513
S'Power Node B'
p514
aS'0x3010'
p515
aS'0x1'
p516
aS'0x3203'
p517
aS'0x0'
p518
aS'0x0'
p519
atp520
a(S'PowerARequestRomID'
p521
(lp522
S'Power Node A'
p523
aS'0x3204'
p524
aS'data'
p525
aS'0x0'
p526
aS'0x0'
p527
aS'0x0'
p528
atp529
a(S'PowerBRequestRomID'
p530
(lp531
S'Power Node B'
p532
aS'0x3204'
p533
aS'data'
p534
aS'0x0'
p535
aS'0x0'
p536
aS'0x0'
p537
atp538
a(S'PowerAStartCharging'
p539
(lp540
S'Power Node A'
p541
aS'0x3020'
p542
aS'0x11229988'
p543
aS'0x1'
p544
aS'0x0'
p545
aS'0x0'
p546
atp547
a(S'PowerAStopCharging'
p548
(lp549
S'Power Node A'
p550
aS'0x3020'
p551
aS'0x11229988'
p552
aS'0x0'
p553
aS'0x0'
p554
aS'0x0'
p555
atp556
a(S'PowerBStartCharging'
p557
(lp558
S'Power Node B'
p559
aS'0x3020'
p560
aS'0x11229988'
p561
aS'0x1'
p562
aS'0x0'
p563
aS'0x0'
p564
atp565
a(S'PowerBStopCharging'
p566
(lp567
S'Power Node B'
p568
aS'0x3020'
p569
aS'0x11229988'
p570
aS'0x0'
p571
aS'0x0'
p572
aS'0x0'
p573
atp574
a(S'PowerAStopAllManualDischarging'
p575
(lp576
S'Power Node A'
p577
aS'0x3021'
p578
aS'0x34566543'
p579
aS'0x0'
p580
aS'0x0'
p581
aS'0x0'
p582
atp583
a(S'PowerBStopAllManualDischarging'
p584
(lp585
S'Power Node B'
p586
aS'0x3021'
p587
aS'0x34566543'
p588
aS'0x0'
p589
aS'0x0'
p590
aS'0x0'
p591
atp592
a(S'PowerAStartDischarging'
p593
(lp594
S'Power Node A'
p595
aS'0x3021'
p596
aS'0x34566543'
p597
aS'0x1'
p598
aS'data.cellIndex'
p599
aS'0x1'
p600
atp601
a(S'PowerAStopDischarging'
p602
(lp603
S'Power Node A'
p604
aS'0x3021'
p605
aS'0x34566543'
p606
aS'0x1'
p607
aS'data.cellIndex'
p608
aS'0x0'
p609
atp610
a(S'PowerBStartDischarging'
p611
(lp612
S'Power Node B'
p613
aS'0x3021'
p614
aS'0x34566543'
p615
aS'0x1'
p616
aS'data.cellIndex'
p617
aS'0x1'
p618
atp619
a(S'PowerBStopDischarging'
p620
(lp621
S'Power Node B'
p622
aS'0x3021'
p623
aS'0x34566543'
p624
aS'0x1'
p625
aS'data.cellIndex'
p626
aS'0x0'
p627
atp628
a(S'PowerAPowerLatch'
p629
(lp630
S'Power Node A'
p631
aS'0x3030'
p632
aS'0xabcd1245'
p633
aS'0x0'
p634
aS'0x0'
p635
aS'0x0'
p636
atp637
a(S'PowerBPowerLatch'
p638
(lp639
S'Power Node B'
p640
aS'0x3030'
p641
aS'0xabcd1245'
p642
aS'0x1'
p643
aS'0x0'
p644
aS'0x0'
p645
atp646
a(S'PowerAToPowerB'
p647
(lp648
S'Power Node A'
p649
aS'0x3031'
p650
aS'0x11223344'
p651
aS'0x1'
p652
aS'0x0'
p653
aS'0x0'
p654
atp655
a(S'PowerBToPowerA'
p656
(lp657
S'Power Node B'
p658
aS'0x3031'
p659
aS'0x11223344'
p660
aS'0x0'
p661
aS'0x0'
p662
aS'0x0'
p663
atp664
a(S'FCUHover_Enable'
p665
(lp666
S'Flight Control'
p667
aS'0x0'
p668
aS'0x0'
p669
aS'0x0'
p670
aS'0x0'
p671
aS'0x0'
p672
atp673
a(S'FCUHover_Disable'
p674
(lp675
S'Flight Control'
p676
aS'0x0'
p677
aS'0x0'
p678
aS'0x0'
p679
aS'0x0'
p680
aS'0x0'
p681
atp682
a(S'FCUHover_EnableStaticHovering'
p683
(lp684
S'Flight Control'
p685
aS'0x0'
p686
aS'0x0'
p687
aS'0x0'
p688
aS'0x0'
p689
aS'0x0'
p690
atp691
a(S'FCUHover_ReleaseStaticHovering'
p692
(lp693
S'Flight Control'
p694
aS'0x0'
p695
aS'0x0'
p696
aS'0x0'
p697
aS'0x0'
p698
aS'0x0'
p699
atp700
a(S'FCUHover_EnableHEX'
p701
(lp702
S'Flight Control'
p703
aS'0x0'
p704
aS'0x0'
p705
aS'0x0'
p706
aS'0x0'
p707
aS'0x0'
p708
atp709
a(S'FCUHover_DisableHEX'
p710
(lp711
S'Flight Control'
p712
aS'0x0'
p713
aS'0x0'
p714
aS'0x0'
p715
aS'0x0'
p716
aS'0x0'
p717
atp718
a(S'FCUHover_SetHEXSpeed'
p719
(lp720
S'Flight Control'
p721
aS'0x0'
p722
aS'0x0'
p723
aS'0x0'
p724
aS'0x0'
p725
aS'0x0'
p726
atp727
a(S'FCUHover_StartCooling'
p728
(lp729
S'Flight Control'
p730
aS'0x0'
p731
aS'0x0'
p732
aS'0x0'
p733
aS'0x0'
p734
aS'0x0'
p735
atp736
a(S'FCUHover_StopCooling'
p737
(lp738
S'Flight Control'
p739
aS'0x0'
p740
aS'0x0'
p741
aS'0x0'
p742
aS'0x0'
p743
aS'0x0'
p744
atp745
a(S'FCUHover_OpenSolenoid'
p746
(lp747
S'Flight Control'
p748
aS'0x0'
p749
aS'0x0'
p750
aS'0x0'
p751
aS'0x0'
p752
aS'0x0'
p753
atp754
a(S'FCUAuxProp_Enable'
p755
(lp756
S'Flight Control'
p757
aS'0x0'
p758
aS'0x0'
p759
aS'0x0'
p760
aS'0x0'
p761
aS'0x0'
p762
atp763
a(S'FCUAuxProp_Disable'
p764
(lp765
S'Flight Control'
p766
aS'0x0'
p767
aS'0x0'
p768
aS'0x0'
p769
aS'0x0'
p770
aS'0x0'
p771
atp772
a(S'FCUAuxProp_SetSpeed'
p773
(lp774
S'Flight Control'
p775
aS'0x0'
p776
aS'0x0'
p777
aS'0x0'
p778
aS'0x0'
p779
aS'0x0'
p780
atp781
a(S'FCUGimbal_Static'
p782
(lp783
S'Flight Control'
p784
aS'0x0'
p785
aS'0x0'
p786
aS'0x0'
p787
aS'0x0'
p788
aS'0x0'
p789
atp790
a(S'FCUGimbal_FullBackwards'
p791
(lp792
S'Flight Control'
p793
aS'0x0'
p794
aS'0x0'
p795
aS'0x0'
p796
aS'0x0'
p797
aS'0x0'
p798
atp799
a(S'XilinxSim_Start'
p800
(lp801
S'Xilinx Sim'
p802
aS'0x5000'
p803
aS'0x1'
p804
aS'0x0'
p805
aS'0x0'
p806
aS'0x0'
p807
atp808
a(S'XilinxSim_Stop'
p809
(lp810
S'Xilinx Sim'
p811
aS'0x5000'
p812
aS'0x0'
p813
aS'0x0'
p814
aS'0x0'
p815
aS'0x0'
p816
atp817
a(S'XilinxSim_Laser0On'
p818
(lp819
S'Xilinx Sim'
p820
aS'0x5001'
p821
aS'0x0'
p822
aS'0x1'
p823
aS'0x0'
p824
aS'0x0'
p825
atp826
a(S'XilinxSim_Laser0Off'
p827
(lp828
S'Xilinx Sim'
p829
aS'0x5001'
p830
aS'0x0'
p831
aS'0x0'
p832
aS'0x0'
p833
aS'0x0'
p834
atp835
a(S'XilinxSim_Laser1On'
p836
(lp837
S'Xilinx Sim'
p838
aS'0x5001'
p839
aS'0x1'
p840
aS'0x1'
p841
aS'0x0'
p842
aS'0x0'
p843
atp844
a(S'XilinxSim_Laser1Off'
p845
(lp846
S'Xilinx Sim'
p847
aS'0x5001'
p848
aS'0x1'
p849
aS'0x0'
p850
aS'0x0'
p851
aS'0x0'
p852
atp853
a(S'XilinxSim_Laser2On'
p854
(lp855
S'Xilinx Sim'
p856
aS'0x5001'
p857
aS'0x2'
p858
aS'0x1'
p859
aS'0x0'
p860
aS'0x0'
p861
atp862
a(S'XilinxSim_Laser2Off'
p863
(lp864
S'Xilinx Sim'
p865
aS'0x5001'
p866
aS'0x2'
p867
aS'0x0'
p868
aS'0x0'
p869
aS'0x0'
p870
atp871
a(S'AutoSequenceTest_Start'
p872
(lp873
S'Xilinx Sim'
p874
aS'0x1900'
p875
aS'0x1'
p876
aS'0x0'
p877
aS'0x0'
p878
aS'0x0'
p879
atp880
a(S'AutoSequenceTest_Skip'
p881
(lp882
S'Xilinx Sim'
p883
aS'0x1900'
p884
aS'0x2'
p885
aS'0x0'
p886
aS'0x0'
p887
aS'0x0'
p888
atp889
a(S'AutoSequenceTest_Kill'
p890
(lp891
S'Xilinx Sim'
p892
aS'0x1900'
p893
aS'0x3'
p894
aS'0x0'
p895
aS'0x0'
p896
aS'0x0'
p897
atp898
a(S'AutoSequenceTest_Restart'
p899
(lp900
S'Xilinx Sim'
p901
aS'0x1900'
p902
aS'0x4'
p903
aS'0x0'
p904
aS'0x0'
p905
aS'0x0'
p906
atp907
a(S'PodSafePowerNodeA'
p908
(lp909
S'Power Node A'
p910
aS'0x3000'
p911
aS'0x76543210'
p912
aS'0x0'
p913
aS'0x0'
p914
aS'0x0'
p915
atp916
a(S'PodSafePowerNodeB'
p917
(lp918
S'Power Node B'
p919
aS'0x3000'
p920
aS'0x76543210'
p921
aS'0x0'
p922
aS'0x0'
p923
aS'0x0'
p924
atp925
a(S'ForcePreRunPhase'
p926
(lp927
S'Flight Control'
p928
aS'0x3'
p929
aS'0x0'
p930
aS'0x0'
p931
aS'0x0'
p932
aS'0x0'
p933
atp934
a.